target datalayout = "e-m:e-p270:32:32-p271:32:32-p272:64:64-i64:64-i128:128-f80:128-n8:16:32:64-S128"
target triple = "x86_64-pc-linux-gnu"

%struct.UCHARBUF = type { ptr, ptr, ptr, i32, i32, i32, ptr, ptr, i8, i8 }

; Function Attrs: mustprogress nounwind uwtable
define void @ucbuf_ungetc(i32 noundef %0, ptr noundef %1) #5 {
  %3 = alloca i32, align 4
  %4 = alloca ptr, align 8
  store i32 %0, ptr %3, align 4, !tbaa !16
  store ptr %1, ptr %4, align 8, !tbaa !28
  %5 = load ptr, ptr %4, align 8, !tbaa !28
  %6 = getelementptr inbounds nuw %struct.UCHARBUF, ptr %5, i32 0, i32 1
  %7 = load ptr, ptr %6, align 8, !tbaa !30
  %8 = load ptr, ptr %4, align 8, !tbaa !28
  %9 = getelementptr inbounds nuw %struct.UCHARBUF, ptr %8, i32 0, i32 0
  %10 = load ptr, ptr %9, align 8, !tbaa !34
  %11 = icmp ne ptr %7, %10
  br i1 %11, label %12, label %28

12:                                               ; preds = %2
  %13 = load ptr, ptr %4, align 8, !tbaa !28
  %14 = getelementptr inbounds nuw %struct.UCHARBUF, ptr %13, i32 0, i32 1
  %15 = load ptr, ptr %14, align 8, !tbaa !30
  %16 = getelementptr inbounds i16, ptr %15, i64 -1
  %17 = load i16, ptr %16, align 2, !tbaa !26
  %18 = zext i16 %17 to i32
  %19 = load i32, ptr %3, align 4, !tbaa !16
  %20 = icmp eq i32 %18, %19
  br i1 %20, label %21, label %26

21:                                               ; preds = %12
  %22 = load ptr, ptr %4, align 8, !tbaa !28
  %23 = getelementptr inbounds nuw %struct.UCHARBUF, ptr %22, i32 0, i32 1
  %24 = load ptr, ptr %23, align 8, !tbaa !30
  %25 = getelementptr inbounds i16, ptr %24, i32 -1
  store ptr %25, ptr %23, align 8, !tbaa !30
  br label %27

26:                                               ; preds = %12
  br label %27

27:                                               ; preds = %26, %21
  br label %29

28:                                               ; preds = %2
  br label %29

29:                                               ; preds = %28, %27
  ret void
}