; Function Attrs: mustprogress nofree norecurse nosync nounwind willreturn memory(read, argmem: readwrite, inaccessiblemem: none) uwtable
define void @ucbuf_ungetc(i32 noundef %0, ptr noundef captures(none) %1) local_unnamed_addr #7 {
  %3 = getelementptr inbounds nuw i8, ptr %1, i64 8
  %4 = load ptr, ptr %3, align 8, !tbaa !16
  %5 = load ptr, ptr %1, align 8, !tbaa !23
  %.not = icmp eq ptr %4, %5
  br i1 %.not, label %12, label %6

6:                                                ; preds = %2
  %7 = getelementptr inbounds i8, ptr %4, i64 -2
  %8 = load i16, ptr %7, align 2, !tbaa !21
  %9 = zext i16 %8 to i32
  %10 = icmp eq i32 %0, %9
  br i1 %10, label %11, label %12

11:                                               ; preds = %6
  store ptr %7, ptr %3, align 8, !tbaa !16
  br label %12

12:                                               ; preds = %2, %11, %6
  ret void
}